target datalayout = "e-m:e-p270:32:32-p271:32:32-p272:64:64-i64:64-i128:128-f80:128-n8:16:32:64-S128"
target triple = "x86_64-unknown-linux-gnu"

%struct.HIDState = type { %union.anon, i32, i32, i32, i32, i8, i8, ptr, ptr, ptr }
%union.anon = type { %struct.HIDMouseState }
%struct.HIDMouseState = type { [16 x %struct.HIDPointerEvent], i32 }
%struct.HIDPointerEvent = type { i32, i32, i32, i32 }

; Function Attrs: nounwind sspstrong uwtable
define dso_local zeroext i1 @hid_has_events(ptr noundef %hs) #0 {
entry:
  %hs.addr = alloca ptr, align 8
  store ptr %hs, ptr %hs.addr, align 8
  %0 = load ptr, ptr %hs.addr, align 8
  %n = getelementptr inbounds %struct.HIDState, ptr %0, i32 0, i32 2
  %1 = load i32, ptr %n, align 8
  %cmp = icmp ugt i32 %1, 0
  br i1 %cmp, label %lor.end, label %lor.rhs

lor.rhs:                                          ; preds = %entry
  %2 = load ptr, ptr %hs.addr, align 8
  %idle_pending = getelementptr inbounds %struct.HIDState, ptr %2, i32 0, i32 6
  %3 = load i8, ptr %idle_pending, align 1
  %tobool = trunc i8 %3 to i1
  br label %lor.end

lor.end:                                          ; preds = %lor.rhs, %entry
  %4 = phi i1 [ true, %entry ], [ %tobool, %lor.rhs ]
  ret i1 %4
}