; Function Attrs: mustprogress nofree norecurse nosync nounwind sspstrong willreturn memory(argmem: read) uwtable
define dso_local zeroext i1 @hid_has_events(ptr noundef readonly captures(none) %hs) local_unnamed_addr #0 {
entry:
  %n = getelementptr inbounds nuw i8, ptr %hs, i64 264
  %0 = load i32, ptr %n, align 8
  %cmp.not = icmp eq i32 %0, 0
  br i1 %cmp.not, label %lor.rhs, label %lor.end

lor.rhs:                                          ; preds = %entry
  %idle_pending = getelementptr inbounds nuw i8, ptr %hs, i64 277
  %1 = load i8, ptr %idle_pending, align 1
  %tobool = trunc i8 %1 to i1
  br label %lor.end

lor.end:                                          ; preds = %lor.rhs, %entry
  %2 = phi i1 [ true, %entry ], [ %tobool, %lor.rhs ]
  ret i1 %2
}